; Function Attrs: mustprogress nofree norecurse nosync nounwind willreturn memory(argmem: readwrite) uwtable
define internal noundef zeroext i1 @"_ZNSt17_Function_handlerIFN5folly6detail12TimeIterDataEjEZNS1_17BenchmarkingStateINSt6chrono3_V212system_clockEE12addBenchmarkIZNS8_12addBenchmarkIRNS0_3$_1EEENSt9enable_ifIXsr5follyE14is_invocable_vIT_EEvE4typeEPKcNS0_5RangeISI_EEOSE_EUljE_EENSD_IXsr5follyE14is_invocable_vISE_jEEvE4typeESI_SK_SL_EUljE_E10_M_managerERSt9_Any_dataRKSR_St18_Manager_operation"(ptr noundef nonnull writeonly align 8 captures(none) dereferenceable(16) %0, ptr noundef nonnull align 8 dereferenceable(16) %1, i32 noundef %2) #15 align 2 personality ptr @__gxx_personality_v0 {
  switch i32 %2, label %"_ZNSt14_Function_base13_Base_managerIZN5folly6detail17BenchmarkingStateINSt6chrono3_V212system_clockEE12addBenchmarkIZNS7_12addBenchmarkIRNS1_3$_1EEENSt9enable_ifIXsr5follyE14is_invocable_vIT_EEvE4typeEPKcNS1_5RangeISH_EEOSD_EUljE_EENSC_IXsr5follyE14is_invocable_vISD_jEEvE4typeESH_SJ_SK_EUljE_E10_M_managerERSt9_Any_dataRKSQ_St18_Manager_operation.exit" [
    i32 0, label %4
    i32 1, label %5
    i32 2, label %6
  ]

4:                                                ; preds = %3
  store ptr @"_ZTIZN5folly6detail17BenchmarkingStateINSt6chrono3_V212system_clockEE12addBenchmarkIZNS5_12addBenchmarkIRNS_3$_1EEENSt9enable_ifIXsr5follyE14is_invocable_vIT_EEvE4typeEPKcNS_5RangeISF_EEOSB_EUljE_EENSA_IXsr5follyE14is_invocable_vISB_jEEvE4typeESF_SH_SI_EUljE_", ptr %0, align 8, !tbaa !74
  br label %"_ZNSt14_Function_base13_Base_managerIZN5folly6detail17BenchmarkingStateINSt6chrono3_V212system_clockEE12addBenchmarkIZNS7_12addBenchmarkIRNS1_3$_1EEENSt9enable_ifIXsr5follyE14is_invocable_vIT_EEvE4typeEPKcNS1_5RangeISH_EEOSD_EUljE_EENSC_IXsr5follyE14is_invocable_vISD_jEEvE4typeESH_SJ_SK_EUljE_E10_M_managerERSt9_Any_dataRKSQ_St18_Manager_operation.exit"

5:                                                ; preds = %3
  store ptr %1, ptr %0, align 8, !tbaa !76
  br label %"_ZNSt14_Function_base13_Base_managerIZN5folly6detail17BenchmarkingStateINSt6chrono3_V212system_clockEE12addBenchmarkIZNS7_12addBenchmarkIRNS1_3$_1EEENSt9enable_ifIXsr5follyE14is_invocable_vIT_EEvE4typeEPKcNS1_5RangeISH_EEOSD_EUljE_EENSC_IXsr5follyE14is_invocable_vISD_jEEvE4typeESH_SJ_SK_EUljE_E10_M_managerERSt9_Any_dataRKSQ_St18_Manager_operation.exit"

6:                                                ; preds = %3
  %.val.i = load i8, ptr %1, align 8
  store i8 %.val.i, ptr %0, align 8
  br label %"_ZNSt14_Function_base13_Base_managerIZN5folly6detail17BenchmarkingStateINSt6chrono3_V212system_clockEE12addBenchmarkIZNS7_12addBenchmarkIRNS1_3$_1EEENSt9enable_ifIXsr5follyE14is_invocable_vIT_EEvE4typeEPKcNS1_5RangeISH_EEOSD_EUljE_EENSC_IXsr5follyE14is_invocable_vISD_jEEvE4typeESH_SJ_SK_EUljE_E10_M_managerERSt9_Any_dataRKSQ_St18_Manager_operation.exit"

"_ZNSt14_Function_base13_Base_managerIZN5folly6detail17BenchmarkingStateINSt6chrono3_V212system_clockEE12addBenchmarkIZNS7_12addBenchmarkIRNS1_3$_1EEENSt9enable_ifIXsr5follyE14is_invocable_vIT_EEvE4typeEPKcNS1_5RangeISH_EEOSD_EUljE_EENSC_IXsr5follyE14is_invocable_vISD_jEEvE4typeESH_SJ_SK_EUljE_E10_M_managerERSt9_Any_dataRKSQ_St18_Manager_operation.exit": ; preds = %3, %6, %5, %4
  ret i1 false
}